target datalayout = "e-m:e-p270:32:32-p271:32:32-p272:64:64-i64:64-i128:128-f80:128-n8:16:32:64-S128"
target triple = "x86_64-pc-linux-gnu"

%struct._lv_table_t = type { %struct._lv_obj_t, i32, i32, ptr, ptr, ptr, i32, i32 }
%struct._lv_obj_t = type { ptr, ptr, ptr, ptr, ptr, %struct.lv_area_t, i32, i16, i16 }
%struct.lv_area_t = type { i32, i32, i32, i32 }
%struct._lv_table_cell_t = type { i32, ptr, [1 x i8] }
%struct.__va_list_tag = type { i32, i32, ptr, ptr }

; Function Attrs: nounwind uwtable
define void @lv_table_set_cell_value_fmt(ptr noundef %0, i32 noundef %1, i32 noundef %2, ptr noundef %3, ...) #0 {
  %5 = alloca ptr, align 8
  %6 = alloca i32, align 4
  %7 = alloca i32, align 4
  %8 = alloca ptr, align 8
  %9 = alloca ptr, align 8
  %10 = alloca i32, align 4
  %11 = alloca i32, align 4
  %12 = alloca ptr, align 8
  %13 = alloca [1 x %struct.__va_list_tag], align 16
  %14 = alloca [1 x %struct.__va_list_tag], align 16
  %15 = alloca i32, align 4
  %16 = alloca i32, align 4
  store ptr %0, ptr %5, align 8, !tbaa !8
  store i32 %1, ptr %6, align 4, !tbaa !25
  store i32 %2, ptr %7, align 4, !tbaa !25
  store ptr %3, ptr %8, align 8, !tbaa !45
  br label %17

17:                                               ; preds = %4
  %18 = load ptr, ptr %5, align 8, !tbaa !8
  %19 = icmp ne ptr %18, null
  br i1 %19, label %24, label %20

20:                                               ; preds = %17
  br label %21

21:                                               ; preds = %20
  br label %22

22:                                               ; preds = %21
  br label %23

23:                                               ; preds = %22, %23
  br label %23

24:                                               ; preds = %17
  br label %25

25:                                               ; preds = %24
  br label %26

26:                                               ; preds = %25
  %27 = load ptr, ptr %8, align 8, !tbaa !45
  %28 = icmp ne ptr %27, null
  br i1 %28, label %33, label %29

29:                                               ; preds = %26
  br label %30

30:                                               ; preds = %29
  br label %31

31:                                               ; preds = %30
  br label %32

32:                                               ; preds = %31, %32
  br label %32

33:                                               ; preds = %26
  br label %34

34:                                               ; preds = %33
  call void @llvm.lifetime.start.p0(i64 8, ptr %9) #6
  %35 = load ptr, ptr %5, align 8, !tbaa !8
  store ptr %35, ptr %9, align 8, !tbaa !10
  %36 = load i32, ptr %7, align 4, !tbaa !25
  %37 = load ptr, ptr %9, align 8, !tbaa !10
  %38 = getelementptr inbounds nuw %struct._lv_table_t, ptr %37, i32 0, i32 1
  %39 = load i32, ptr %38, align 8, !tbaa !12
  %40 = icmp uge i32 %36, %39
  br i1 %40, label %41, label %45

41:                                               ; preds = %34
  %42 = load ptr, ptr %5, align 8, !tbaa !8
  %43 = load i32, ptr %7, align 4, !tbaa !25
  %44 = add i32 %43, 1
  call void @lv_table_set_column_count(ptr noundef %42, i32 noundef %44)
  br label %45

45:                                               ; preds = %41, %34
  %46 = load i32, ptr %6, align 4, !tbaa !25
  %47 = load ptr, ptr %9, align 8, !tbaa !10
  %48 = getelementptr inbounds nuw %struct._lv_table_t, ptr %47, i32 0, i32 2
  %49 = load i32, ptr %48, align 4, !tbaa !22
  %50 = icmp uge i32 %46, %49
  br i1 %50, label %51, label %55

51:                                               ; preds = %45
  %52 = load ptr, ptr %5, align 8, !tbaa !8
  %53 = load i32, ptr %6, align 4, !tbaa !25
  %54 = add i32 %53, 1
  call void @lv_table_set_row_count(ptr noundef %52, i32 noundef %54)
  br label %55

55:                                               ; preds = %51, %45
  call void @llvm.lifetime.start.p0(i64 4, ptr %10) #6
  %56 = load i32, ptr %6, align 4, !tbaa !25
  %57 = load ptr, ptr %9, align 8, !tbaa !10
  %58 = getelementptr inbounds nuw %struct._lv_table_t, ptr %57, i32 0, i32 1
  %59 = load i32, ptr %58, align 8, !tbaa !12
  %60 = mul i32 %56, %59
  %61 = load i32, ptr %7, align 4, !tbaa !25
  %62 = add i32 %60, %61
  store i32 %62, ptr %10, align 4, !tbaa !25
  call void @llvm.lifetime.start.p0(i64 4, ptr %11) #6
  store i32 0, ptr %11, align 4, !tbaa !25
  %63 = load ptr, ptr %9, align 8, !tbaa !10
  %64 = getelementptr inbounds nuw %struct._lv_table_t, ptr %63, i32 0, i32 3
  %65 = load ptr, ptr %64, align 8, !tbaa !26
  %66 = load i32, ptr %10, align 4, !tbaa !25
  %67 = zext i32 %66 to i64
  %68 = getelementptr inbounds nuw ptr, ptr %65, i64 %67
  %69 = load ptr, ptr %68, align 8, !tbaa !27
  %70 = icmp ne ptr %69, null
  br i1 %70, label %71, label %81

71:                                               ; preds = %55
  %72 = load ptr, ptr %9, align 8, !tbaa !10
  %73 = getelementptr inbounds nuw %struct._lv_table_t, ptr %72, i32 0, i32 3
  %74 = load ptr, ptr %73, align 8, !tbaa !26
  %75 = load i32, ptr %10, align 4, !tbaa !25
  %76 = zext i32 %75 to i64
  %77 = getelementptr inbounds nuw ptr, ptr %74, i64 %76
  %78 = load ptr, ptr %77, align 8, !tbaa !27
  %79 = getelementptr inbounds nuw %struct._lv_table_cell_t, ptr %78, i32 0, i32 0
  %80 = load i32, ptr %79, align 8, !tbaa !47
  store i32 %80, ptr %11, align 4, !tbaa !25
  br label %81

81:                                               ; preds = %71, %55
  call void @llvm.lifetime.start.p0(i64 8, ptr %12) #6
  store ptr null, ptr %12, align 8, !tbaa !37
  %82 = load ptr, ptr %9, align 8, !tbaa !10
  %83 = getelementptr inbounds nuw %struct._lv_table_t, ptr %82, i32 0, i32 3
  %84 = load ptr, ptr %83, align 8, !tbaa !26
  %85 = load i32, ptr %10, align 4, !tbaa !25
  %86 = zext i32 %85 to i64
  %87 = getelementptr inbounds nuw ptr, ptr %84, i64 %86
  %88 = load ptr, ptr %87, align 8, !tbaa !27
  %89 = icmp ne ptr %88, null
  br i1 %89, label %90, label %100

90:                                               ; preds = %81
  %91 = load ptr, ptr %9, align 8, !tbaa !10
  %92 = getelementptr inbounds nuw %struct._lv_table_t, ptr %91, i32 0, i32 3
  %93 = load ptr, ptr %92, align 8, !tbaa !26
  %94 = load i32, ptr %10, align 4, !tbaa !25
  %95 = zext i32 %94 to i64
  %96 = getelementptr inbounds nuw ptr, ptr %93, i64 %95
  %97 = load ptr, ptr %96, align 8, !tbaa !27
  %98 = getelementptr inbounds nuw %struct._lv_table_cell_t, ptr %97, i32 0, i32 1
  %99 = load ptr, ptr %98, align 8, !tbaa !31
  store ptr %99, ptr %12, align 8, !tbaa !37
  br label %100

100:                                              ; preds = %90, %81
  call void @llvm.lifetime.start.p0(i64 24, ptr %13) #6
  call void @llvm.lifetime.start.p0(i64 24, ptr %14) #6
  %101 = getelementptr inbounds [1 x %struct.__va_list_tag], ptr %13, i64 0, i64 0
  call void @llvm.va_start.p0(ptr %101)
  %102 = getelementptr inbounds [1 x %struct.__va_list_tag], ptr %14, i64 0, i64 0
  %103 = getelementptr inbounds [1 x %struct.__va_list_tag], ptr %13, i64 0, i64 0
  call void @llvm.va_copy.p0(ptr %102, ptr %103)
  call void @llvm.lifetime.start.p0(i64 4, ptr %15) #6
  %104 = load ptr, ptr %8, align 8, !tbaa !45
  %105 = getelementptr inbounds [1 x %struct.__va_list_tag], ptr %13, i64 0, i64 0
  %106 = call i32 @lv_vsnprintf(ptr noundef null, i64 noundef 0, ptr noundef %104, ptr noundef %105)
  store i32 %106, ptr %15, align 4, !tbaa !25
  %107 = getelementptr inbounds [1 x %struct.__va_list_tag], ptr %13, i64 0, i64 0
  call void @llvm.va_end.p0(ptr %107)
  %108 = load ptr, ptr %9, align 8, !tbaa !10
  %109 = getelementptr inbounds nuw %struct._lv_table_t, ptr %108, i32 0, i32 3
  %110 = load ptr, ptr %109, align 8, !tbaa !26
  %111 = load i32, ptr %10, align 4, !tbaa !25
  %112 = zext i32 %111 to i64
  %113 = getelementptr inbounds nuw ptr, ptr %110, i64 %112
  %114 = load ptr, ptr %113, align 8, !tbaa !27
  %115 = load i32, ptr %15, align 4, !tbaa !25
  %116 = zext i32 %115 to i64
  %117 = add i64 24, %116
  %118 = add i64 %117, 1
  %119 = call ptr @lv_realloc(ptr noundef %114, i64 noundef %118)
  %120 = load ptr, ptr %9, align 8, !tbaa !10
  %121 = getelementptr inbounds nuw %struct._lv_table_t, ptr %120, i32 0, i32 3
  %122 = load ptr, ptr %121, align 8, !tbaa !26
  %123 = load i32, ptr %10, align 4, !tbaa !25
  %124 = zext i32 %123 to i64
  %125 = getelementptr inbounds nuw ptr, ptr %122, i64 %124
  store ptr %119, ptr %125, align 8, !tbaa !27
  br label %126

126:                                              ; preds = %100
  %127 = load ptr, ptr %9, align 8, !tbaa !10
  %128 = getelementptr inbounds nuw %struct._lv_table_t, ptr %127, i32 0, i32 3
  %129 = load ptr, ptr %128, align 8, !tbaa !26
  %130 = load i32, ptr %10, align 4, !tbaa !25
  %131 = zext i32 %130 to i64
  %132 = getelementptr inbounds nuw ptr, ptr %129, i64 %131
  %133 = load ptr, ptr %132, align 8, !tbaa !27
  %134 = icmp ne ptr %133, null
  br i1 %134, label %141, label %135

135:                                              ; preds = %126
  br label %136

136:                                              ; preds = %135
  br label %137

137:                                              ; preds = %136
  br label %138

138:                                              ; preds = %137
  br label %139

139:                                              ; preds = %140, %138
  br label %140

140:                                              ; preds = %139
  br label %139

141:                                              ; preds = %126
  br label %142

142:                                              ; preds = %141
  br label %143

143:                                              ; preds = %142
  %144 = load ptr, ptr %9, align 8, !tbaa !10
  %145 = getelementptr inbounds nuw %struct._lv_table_t, ptr %144, i32 0, i32 3
  %146 = load ptr, ptr %145, align 8, !tbaa !26
  %147 = load i32, ptr %10, align 4, !tbaa !25
  %148 = zext i32 %147 to i64
  %149 = getelementptr inbounds nuw ptr, ptr %146, i64 %148
  %150 = load ptr, ptr %149, align 8, !tbaa !27
  %151 = icmp eq ptr %150, null
  br i1 %151, label %152, label %154

152:                                              ; preds = %143
  %153 = getelementptr inbounds [1 x %struct.__va_list_tag], ptr %14, i64 0, i64 0
  call void @llvm.va_end.p0(ptr %153)
  store i32 1, ptr %16, align 4
  br label %203

154:                                              ; preds = %143
  %155 = load ptr, ptr %9, align 8, !tbaa !10
  %156 = getelementptr inbounds nuw %struct._lv_table_t, ptr %155, i32 0, i32 3
  %157 = load ptr, ptr %156, align 8, !tbaa !26
  %158 = load i32, ptr %10, align 4, !tbaa !25
  %159 = zext i32 %158 to i64
  %160 = getelementptr inbounds nuw ptr, ptr %157, i64 %159
  %161 = load ptr, ptr %160, align 8, !tbaa !27
  %162 = getelementptr inbounds nuw %struct._lv_table_cell_t, ptr %161, i32 0, i32 2
  %163 = load i32, ptr %15, align 4, !tbaa !25
  %164 = zext i32 %163 to i64
  %165 = getelementptr inbounds nuw [1 x i8], ptr %162, i64 0, i64 %164
  store i8 0, ptr %165, align 1, !tbaa !59
  %166 = load ptr, ptr %9, align 8, !tbaa !10
  %167 = getelementptr inbounds nuw %struct._lv_table_t, ptr %166, i32 0, i32 3
  %168 = load ptr, ptr %167, align 8, !tbaa !26
  %169 = load i32, ptr %10, align 4, !tbaa !25
  %170 = zext i32 %169 to i64
  %171 = getelementptr inbounds nuw ptr, ptr %168, i64 %170
  %172 = load ptr, ptr %171, align 8, !tbaa !27
  %173 = getelementptr inbounds nuw %struct._lv_table_cell_t, ptr %172, i32 0, i32 2
  %174 = getelementptr inbounds [1 x i8], ptr %173, i64 0, i64 0
  %175 = load i32, ptr %15, align 4, !tbaa !25
  %176 = add i32 %175, 1
  %177 = zext i32 %176 to i64
  %178 = load ptr, ptr %8, align 8, !tbaa !45
  %179 = getelementptr inbounds [1 x %struct.__va_list_tag], ptr %14, i64 0, i64 0
  %180 = call i32 @lv_vsnprintf(ptr noundef %174, i64 noundef %177, ptr noundef %178, ptr noundef %179)
  %181 = getelementptr inbounds [1 x %struct.__va_list_tag], ptr %14, i64 0, i64 0
  call void @llvm.va_end.p0(ptr %181)
  %182 = load i32, ptr %11, align 4, !tbaa !25
  %183 = load ptr, ptr %9, align 8, !tbaa !10
  %184 = getelementptr inbounds nuw %struct._lv_table_t, ptr %183, i32 0, i32 3
  %185 = load ptr, ptr %184, align 8, !tbaa !26
  %186 = load i32, ptr %10, align 4, !tbaa !25
  %187 = zext i32 %186 to i64
  %188 = getelementptr inbounds nuw ptr, ptr %185, i64 %187
  %189 = load ptr, ptr %188, align 8, !tbaa !27
  %190 = getelementptr inbounds nuw %struct._lv_table_cell_t, ptr %189, i32 0, i32 0
  store i32 %182, ptr %190, align 8, !tbaa !47
  %191 = load ptr, ptr %12, align 8, !tbaa !37
  %192 = load ptr, ptr %9, align 8, !tbaa !10
  %193 = getelementptr inbounds nuw %struct._lv_table_t, ptr %192, i32 0, i32 3
  %194 = load ptr, ptr %193, align 8, !tbaa !26
  %195 = load i32, ptr %10, align 4, !tbaa !25
  %196 = zext i32 %195 to i64
  %197 = getelementptr inbounds nuw ptr, ptr %194, i64 %196
  %198 = load ptr, ptr %197, align 8, !tbaa !27
  %199 = getelementptr inbounds nuw %struct._lv_table_cell_t, ptr %198, i32 0, i32 1
  store ptr %191, ptr %199, align 8, !tbaa !31
  %200 = load ptr, ptr %5, align 8, !tbaa !8
  %201 = load i32, ptr %6, align 4, !tbaa !25
  %202 = load i32, ptr %7, align 4, !tbaa !25
  call void @refr_cell_size(ptr noundef %200, i32 noundef %201, i32 noundef %202)
  store i32 0, ptr %16, align 4
  br label %203

203:                                              ; preds = %154, %152
  call void @llvm.lifetime.end.p0(i64 4, ptr %15) #6
  call void @llvm.lifetime.end.p0(i64 24, ptr %14) #6
  call void @llvm.lifetime.end.p0(i64 24, ptr %13) #6
  call void @llvm.lifetime.end.p0(i64 8, ptr %12) #6
  call void @llvm.lifetime.end.p0(i64 4, ptr %11) #6
  call void @llvm.lifetime.end.p0(i64 4, ptr %10) #6
  call void @llvm.lifetime.end.p0(i64 8, ptr %9) #6
  %204 = load i32, ptr %16, align 4
  switch i32 %204, label %206 [
    i32 0, label %205
    i32 1, label %205
  ]

205:                                              ; preds = %203, %203
  ret void

206:                                              ; preds = %203
  unreachable
}