; Function Attrs: nounwind uwtable
define void @lv_table_set_cell_value_fmt(ptr noundef %0, i32 noundef %1, i32 noundef %2, ptr noundef %3, ...) local_unnamed_addr #0 {
  %5 = alloca [1 x %struct.__va_list_tag], align 16
  %6 = alloca [1 x %struct.__va_list_tag], align 16
  %.not = icmp eq ptr %0, null
  br i1 %.not, label %.preheader, label %7

.preheader:                                       ; preds = %4, %.preheader
  br label %.preheader

7:                                                ; preds = %4
  %.not55 = icmp eq ptr %3, null
  br i1 %.not55, label %.preheader63, label %8

.preheader63:                                     ; preds = %7, %.preheader63
  br label %.preheader63

8:                                                ; preds = %7
  %9 = getelementptr inbounds nuw i8, ptr %0, i64 64
  %10 = load i32, ptr %9, align 8, !tbaa !3
  %.not56 = icmp ult i32 %2, %10
  br i1 %.not56, label %13, label %11

11:                                               ; preds = %8
  %12 = add i32 %2, 1
  tail call void @lv_table_set_column_count(ptr noundef nonnull %0, i32 noundef %12)
  br label %13

13:                                               ; preds = %11, %8
  %14 = getelementptr inbounds nuw i8, ptr %0, i64 68
  %15 = load i32, ptr %14, align 4, !tbaa !18
  %.not57 = icmp ult i32 %1, %15
  br i1 %.not57, label %18, label %16

16:                                               ; preds = %13
  %17 = add i32 %1, 1
  tail call void @lv_table_set_row_count(ptr noundef nonnull %0, i32 noundef %17)
  br label %18

18:                                               ; preds = %16, %13
  %19 = load i32, ptr %9, align 8, !tbaa !3
  %20 = mul i32 %19, %1
  %21 = add i32 %20, %2
  %22 = getelementptr inbounds nuw i8, ptr %0, i64 72
  %23 = load ptr, ptr %22, align 8, !tbaa !22
  %24 = zext i32 %21 to i64
  %25 = getelementptr inbounds nuw ptr, ptr %23, i64 %24
  %26 = load ptr, ptr %25, align 8, !tbaa !23
  %.not58 = icmp eq ptr %26, null
  br i1 %.not58, label %.thread, label %27

27:                                               ; preds = %18
  %28 = load i32, ptr %26, align 8, !tbaa !41
  %29 = getelementptr inbounds nuw i8, ptr %26, i64 8
  %30 = load ptr, ptr %29, align 8, !tbaa !27
  br label %.thread

.thread:                                          ; preds = %18, %27
  %.062 = phi i32 [ %28, %27 ], [ 0, %18 ]
  %.047 = phi ptr [ %30, %27 ], [ null, %18 ]
  call void @llvm.lifetime.start.p0(i64 24, ptr nonnull %5) #9
  call void @llvm.lifetime.start.p0(i64 24, ptr nonnull %6) #9
  call void @llvm.va_start.p0(ptr nonnull %5)
  call void @llvm.va_copy.p0(ptr nonnull %6, ptr nonnull %5)
  %31 = call i32 @lv_vsnprintf(ptr noundef null, i64 noundef 0, ptr noundef nonnull %3, ptr noundef nonnull %5) #9
  call void @llvm.va_end.p0(ptr nonnull %5)
  %32 = load ptr, ptr %22, align 8, !tbaa !22
  %33 = getelementptr inbounds nuw ptr, ptr %32, i64 %24
  %34 = load ptr, ptr %33, align 8, !tbaa !23
  %35 = zext i32 %31 to i64
  %36 = add nuw nsw i64 %35, 25
  %37 = call ptr @lv_realloc(ptr noundef %34, i64 noundef %36) #9
  %38 = load ptr, ptr %22, align 8, !tbaa !22
  %39 = getelementptr inbounds nuw ptr, ptr %38, i64 %24
  store ptr %37, ptr %39, align 8, !tbaa !23
  %.not60 = icmp eq ptr %37, null
  br i1 %.not60, label %.preheader64, label %40

.preheader64:                                     ; preds = %.thread, %.preheader64
  br label %.preheader64

40:                                               ; preds = %.thread
  %41 = getelementptr inbounds nuw i8, ptr %37, i64 16
  %42 = getelementptr inbounds nuw [1 x i8], ptr %41, i64 0, i64 %35
  store i8 0, ptr %42, align 1, !tbaa !46
  %43 = load ptr, ptr %22, align 8, !tbaa !22
  %44 = getelementptr inbounds nuw ptr, ptr %43, i64 %24
  %45 = load ptr, ptr %44, align 8, !tbaa !23
  %46 = getelementptr inbounds nuw i8, ptr %45, i64 16
  %47 = add i32 %31, 1
  %48 = zext i32 %47 to i64
  %49 = call i32 @lv_vsnprintf(ptr noundef nonnull %46, i64 noundef %48, ptr noundef nonnull %3, ptr noundef nonnull %6) #9
  call void @llvm.va_end.p0(ptr nonnull %6)
  %50 = load ptr, ptr %22, align 8, !tbaa !22
  %51 = getelementptr inbounds nuw ptr, ptr %50, i64 %24
  %52 = load ptr, ptr %51, align 8, !tbaa !23
  store i32 %.062, ptr %52, align 8, !tbaa !41
  %53 = getelementptr inbounds nuw i8, ptr %52, i64 8
  store ptr %.047, ptr %53, align 8, !tbaa !27
  call fastcc void @refr_cell_size(ptr noundef %0, i32 noundef %1, i32 noundef %2)
  call void @llvm.lifetime.end.p0(i64 24, ptr nonnull %6) #9
  call void @llvm.lifetime.end.p0(i64 24, ptr nonnull %5) #9
  ret void
}